target datalayout = "e-m:e-p270:32:32-p271:32:32-p272:64:64-i64:64-i128:128-f80:128-n8:16:32:64-S128"
target triple = "x86_64-pc-linux-gnu"

%"class.ncnn::DeconvolutionDepthWise_x86_fma" = type { %"class.ncnn::DeconvolutionDepthWise", %"class.std::vector.8", %"class.ncnn::Mat" }
%"class.ncnn::DeconvolutionDepthWise" = type { %"class.ncnn::Layer", i32, i32, i32, i32, i32, i32, i32, i32, i32, i32, i32, i32, i32, i32, i32, i32, i32, i32, i32, %"class.ncnn::Mat", i32, %"class.ncnn::Mat", %"class.ncnn::Mat" }
%"class.ncnn::Layer" = type { ptr, i8, i8, i8, i8, i8, i8, i8, i8, i8, i8, i8, i8, i8, i8, i8, i8, i8, i8, i8, i8, i32, ptr, i32, %"class.std::__cxx11::basic_string", %"class.std::__cxx11::basic_string", %"class.std::vector", %"class.std::vector", %"class.std::vector.3", %"class.std::vector.3" }
%"class.std::__cxx11::basic_string" = type { %"struct.std::__cxx11::basic_string<char>::_Alloc_hider", i64, %union.anon }
%"struct.std::__cxx11::basic_string<char>::_Alloc_hider" = type { ptr }
%union.anon = type { i64, [8 x i8] }
%"class.std::vector" = type { %"struct.std::_Vector_base" }
%"struct.std::_Vector_base" = type { %"struct.std::_Vector_base<int, std::allocator<int>>::_Vector_impl" }
%"struct.std::_Vector_base<int, std::allocator<int>>::_Vector_impl" = type { %"struct.std::_Vector_base<int, std::allocator<int>>::_Vector_impl_data" }
%"struct.std::_Vector_base<int, std::allocator<int>>::_Vector_impl_data" = type { ptr, ptr, ptr }
%"class.std::vector.3" = type { %"struct.std::_Vector_base.4" }
%"struct.std::_Vector_base.4" = type { %"struct.std::_Vector_base<ncnn::Mat, std::allocator<ncnn::Mat>>::_Vector_impl" }
%"struct.std::_Vector_base<ncnn::Mat, std::allocator<ncnn::Mat>>::_Vector_impl" = type { %"struct.std::_Vector_base<ncnn::Mat, std::allocator<ncnn::Mat>>::_Vector_impl_data" }
%"struct.std::_Vector_base<ncnn::Mat, std::allocator<ncnn::Mat>>::_Vector_impl_data" = type { ptr, ptr, ptr }
%"class.std::vector.8" = type { %"struct.std::_Vector_base.9" }
%"struct.std::_Vector_base.9" = type { %"struct.std::_Vector_base<ncnn::Layer *, std::allocator<ncnn::Layer *>>::_Vector_impl" }
%"struct.std::_Vector_base<ncnn::Layer *, std::allocator<ncnn::Layer *>>::_Vector_impl" = type { %"struct.std::_Vector_base<ncnn::Layer *, std::allocator<ncnn::Layer *>>::_Vector_impl_data" }
%"struct.std::_Vector_base<ncnn::Layer *, std::allocator<ncnn::Layer *>>::_Vector_impl_data" = type { ptr, ptr, ptr }
%"class.ncnn::Mat" = type { ptr, ptr, i64, i32, ptr, i32, i32, i32, i32, i32, i64 }

; Function Attrs: mustprogress nounwind uwtable
define linkonce_odr hidden void @_ZNSt12_Destroy_auxILb1EE9__destroyIPPN4ncnn5LayerEEEvT_S6_(ptr noundef %0, ptr noundef %1) #2 comdat align 2 {
  %3 = alloca ptr, align 8
  %4 = alloca ptr, align 8
  store ptr %0, ptr %3, align 8
  store ptr %1, ptr %4, align 8
  ret void
}

; Function Attrs: mustprogress uwtable
define linkonce_odr hidden void @_ZSt8_DestroyIPPN4ncnn5LayerEEvT_S4_(ptr noundef %0, ptr noundef %1) #0 comdat {
  %3 = alloca ptr, align 8
  %4 = alloca ptr, align 8
  store ptr %0, ptr %3, align 8
  store ptr %1, ptr %4, align 8
  %5 = load ptr, ptr %3, align 8
  %6 = load ptr, ptr %4, align 8
  call void @_ZNSt12_Destroy_auxILb1EE9__destroyIPPN4ncnn5LayerEEEvT_S6_(ptr noundef %5, ptr noundef %6)
  ret void
}

; Function Attrs: noreturn nounwind uwtable
define linkonce_odr hidden void @__clang_call_terminate(ptr noundef %0) #6 comdat {
  %2 = call ptr @__cxa_begin_catch(ptr %0) #13
  call void @_ZSt9terminatev() #14
  unreachable
}

; Function Attrs: mustprogress uwtable
define linkonce_odr hidden void @_ZSt8_DestroyIPPN4ncnn5LayerES2_EvT_S4_RSaIT0_E(ptr noundef %0, ptr noundef %1, ptr noundef nonnull align 1 dereferenceable(1) %2) #0 comdat {
  %4 = alloca ptr, align 8
  %5 = alloca ptr, align 8
  %6 = alloca ptr, align 8
  store ptr %0, ptr %4, align 8
  store ptr %1, ptr %5, align 8
  store ptr %2, ptr %6, align 8
  %7 = load ptr, ptr %4, align 8
  %8 = load ptr, ptr %5, align 8
  call void @_ZSt8_DestroyIPPN4ncnn5LayerEEvT_S4_(ptr noundef %7, ptr noundef %8)
  ret void
}

; Function Attrs: mustprogress nounwind uwtable
define linkonce_odr hidden noundef nonnull align 1 dereferenceable(1) ptr @_ZNSt12_Vector_baseIPN4ncnn5LayerESaIS2_EE19_M_get_Tp_allocatorEv(ptr noundef nonnull align 8 dereferenceable(24) %0) #2 comdat align 2 {
  %2 = alloca ptr, align 8
  store ptr %0, ptr %2, align 8
  %3 = load ptr, ptr %2, align 8
  %4 = getelementptr inbounds nuw %"struct.std::_Vector_base.9", ptr %3, i32 0, i32 0
  ret ptr %4
}

; Function Attrs: mustprogress nounwind uwtable
define linkonce_odr hidden void @_ZNSt6vectorIPN4ncnn5LayerESaIS2_EE15_M_erase_at_endEPS2_(ptr noundef nonnull align 8 dereferenceable(24) %0, ptr noundef %1) #2 comdat align 2 personality ptr @__gxx_personality_v0 {
  %3 = alloca ptr, align 8
  %4 = alloca ptr, align 8
  %5 = alloca i64, align 8
  store ptr %0, ptr %3, align 8
  store ptr %1, ptr %4, align 8
  %6 = load ptr, ptr %3, align 8
  %7 = getelementptr inbounds nuw %"struct.std::_Vector_base.9", ptr %6, i32 0, i32 0
  %8 = getelementptr inbounds nuw %"struct.std::_Vector_base<ncnn::Layer *, std::allocator<ncnn::Layer *>>::_Vector_impl_data", ptr %7, i32 0, i32 1
  %9 = load ptr, ptr %8, align 8
  %10 = load ptr, ptr %4, align 8
  %11 = ptrtoint ptr %9 to i64
  %12 = ptrtoint ptr %10 to i64
  %13 = sub i64 %11, %12
  %14 = sdiv exact i64 %13, 8
  store i64 %14, ptr %5, align 8
  %15 = load i64, ptr %5, align 8
  %16 = icmp ne i64 %15, 0
  br i1 %16, label %17, label %27

17:                                               ; preds = %2
  %18 = load ptr, ptr %4, align 8
  %19 = getelementptr inbounds nuw %"struct.std::_Vector_base.9", ptr %6, i32 0, i32 0
  %20 = getelementptr inbounds nuw %"struct.std::_Vector_base<ncnn::Layer *, std::allocator<ncnn::Layer *>>::_Vector_impl_data", ptr %19, i32 0, i32 1
  %21 = load ptr, ptr %20, align 8
  %22 = call noundef nonnull align 1 dereferenceable(1) ptr @_ZNSt12_Vector_baseIPN4ncnn5LayerESaIS2_EE19_M_get_Tp_allocatorEv(ptr noundef nonnull align 8 dereferenceable(24) %6) #13
  invoke void @_ZSt8_DestroyIPPN4ncnn5LayerES2_EvT_S4_RSaIT0_E(ptr noundef %18, ptr noundef %21, ptr noundef nonnull align 1 dereferenceable(1) %22)
          to label %23 unwind label %28

23:                                               ; preds = %17
  %24 = load ptr, ptr %4, align 8
  %25 = getelementptr inbounds nuw %"struct.std::_Vector_base.9", ptr %6, i32 0, i32 0
  %26 = getelementptr inbounds nuw %"struct.std::_Vector_base<ncnn::Layer *, std::allocator<ncnn::Layer *>>::_Vector_impl_data", ptr %25, i32 0, i32 1
  store ptr %24, ptr %26, align 8
  br label %27

27:                                               ; preds = %23, %2
  ret void

28:                                               ; preds = %17
  %29 = landingpad { ptr, i32 }
          catch ptr null
  %30 = extractvalue { ptr, i32 } %29, 0
  call void @__clang_call_terminate(ptr %30) #14
  unreachable
}

; Function Attrs: mustprogress nounwind uwtable
define linkonce_odr hidden void @_ZNSt6vectorIPN4ncnn5LayerESaIS2_EE5clearEv(ptr noundef nonnull align 8 dereferenceable(24) %0) #2 comdat align 2 {
  %2 = alloca ptr, align 8
  store ptr %0, ptr %2, align 8
  %3 = load ptr, ptr %2, align 8
  %4 = getelementptr inbounds nuw %"struct.std::_Vector_base.9", ptr %3, i32 0, i32 0
  %5 = getelementptr inbounds nuw %"struct.std::_Vector_base<ncnn::Layer *, std::allocator<ncnn::Layer *>>::_Vector_impl_data", ptr %4, i32 0, i32 0
  %6 = load ptr, ptr %5, align 8
  call void @_ZNSt6vectorIPN4ncnn5LayerESaIS2_EE15_M_erase_at_endEPS2_(ptr noundef nonnull align 8 dereferenceable(24) %3, ptr noundef %6) #13
  ret void
}

; Function Attrs: mustprogress nounwind uwtable
define linkonce_odr hidden noundef nonnull align 8 dereferenceable(8) ptr @_ZNSt6vectorIPN4ncnn5LayerESaIS2_EEixEm(ptr noundef nonnull align 8 dereferenceable(24) %0, i64 noundef %1) #2 comdat align 2 {
  %3 = alloca ptr, align 8
  %4 = alloca i64, align 8
  store ptr %0, ptr %3, align 8
  store i64 %1, ptr %4, align 8
  %5 = load ptr, ptr %3, align 8
  %6 = getelementptr inbounds nuw %"struct.std::_Vector_base.9", ptr %5, i32 0, i32 0
  %7 = getelementptr inbounds nuw %"struct.std::_Vector_base<ncnn::Layer *, std::allocator<ncnn::Layer *>>::_Vector_impl_data", ptr %6, i32 0, i32 0
  %8 = load ptr, ptr %7, align 8
  %9 = load i64, ptr %4, align 8
  %10 = getelementptr inbounds ptr, ptr %8, i64 %9
  ret ptr %10
}

; Function Attrs: mustprogress nounwind uwtable
define linkonce_odr hidden noundef i64 @_ZNKSt6vectorIPN4ncnn5LayerESaIS2_EE4sizeEv(ptr noundef nonnull align 8 dereferenceable(24) %0) #2 comdat align 2 {
  %2 = alloca ptr, align 8
  store ptr %0, ptr %2, align 8
  %3 = load ptr, ptr %2, align 8
  %4 = getelementptr inbounds nuw %"struct.std::_Vector_base.9", ptr %3, i32 0, i32 0
  %5 = getelementptr inbounds nuw %"struct.std::_Vector_base<ncnn::Layer *, std::allocator<ncnn::Layer *>>::_Vector_impl_data", ptr %4, i32 0, i32 1
  %6 = load ptr, ptr %5, align 8
  %7 = getelementptr inbounds nuw %"struct.std::_Vector_base.9", ptr %3, i32 0, i32 0
  %8 = getelementptr inbounds nuw %"struct.std::_Vector_base<ncnn::Layer *, std::allocator<ncnn::Layer *>>::_Vector_impl_data", ptr %7, i32 0, i32 0
  %9 = load ptr, ptr %8, align 8
  %10 = ptrtoint ptr %6 to i64
  %11 = ptrtoint ptr %9 to i64
  %12 = sub i64 %10, %11
  %13 = sdiv exact i64 %12, 8
  ret i64 %13
}

; Function Attrs: mustprogress uwtable
define hidden noundef i32 @_ZN4ncnn30DeconvolutionDepthWise_x86_fma16destroy_pipelineERKNS_6OptionE(ptr noundef nonnull align 8 dereferenceable(608) %0, ptr noundef nonnull align 8 dereferenceable(64) %1) unnamed_addr #0 align 2 {
  %3 = alloca ptr, align 8
  %4 = alloca ptr, align 8
  %5 = alloca i32, align 4
  store ptr %0, ptr %3, align 8
  store ptr %1, ptr %4, align 8
  %6 = load ptr, ptr %3, align 8
  store i32 0, ptr %5, align 4
  br label %7

7:                                                ; preds = %35, %2
  %8 = load i32, ptr %5, align 4
  %9 = getelementptr inbounds nuw %"class.ncnn::DeconvolutionDepthWise_x86_fma", ptr %6, i32 0, i32 1
  %10 = call noundef i64 @_ZNKSt6vectorIPN4ncnn5LayerESaIS2_EE4sizeEv(ptr noundef nonnull align 8 dereferenceable(24) %9) #13
  %11 = trunc i64 %10 to i32
  %12 = icmp slt i32 %8, %11
  br i1 %12, label %13, label %38

13:                                               ; preds = %7
  %14 = getelementptr inbounds nuw %"class.ncnn::DeconvolutionDepthWise_x86_fma", ptr %6, i32 0, i32 1
  %15 = load i32, ptr %5, align 4
  %16 = sext i32 %15 to i64
  %17 = call noundef nonnull align 8 dereferenceable(8) ptr @_ZNSt6vectorIPN4ncnn5LayerESaIS2_EEixEm(ptr noundef nonnull align 8 dereferenceable(24) %14, i64 noundef %16) #13
  %18 = load ptr, ptr %17, align 8
  %19 = load ptr, ptr %4, align 8
  %20 = load ptr, ptr %18, align 8
  %21 = getelementptr inbounds ptr, ptr %20, i64 5
  %22 = load ptr, ptr %21, align 8
  %23 = call noundef i32 %22(ptr noundef nonnull align 8 dereferenceable(208) %18, ptr noundef nonnull align 8 dereferenceable(64) %19)
  %24 = getelementptr inbounds nuw %"class.ncnn::DeconvolutionDepthWise_x86_fma", ptr %6, i32 0, i32 1
  %25 = load i32, ptr %5, align 4
  %26 = sext i32 %25 to i64
  %27 = call noundef nonnull align 8 dereferenceable(8) ptr @_ZNSt6vectorIPN4ncnn5LayerESaIS2_EEixEm(ptr noundef nonnull align 8 dereferenceable(24) %24, i64 noundef %26) #13
  %28 = load ptr, ptr %27, align 8
  %29 = icmp eq ptr %28, null
  br i1 %29, label %34, label %30

30:                                               ; preds = %13
  %31 = load ptr, ptr %28, align 8
  %32 = getelementptr inbounds ptr, ptr %31, i64 1
  %33 = load ptr, ptr %32, align 8
  call void %33(ptr noundef nonnull align 8 dereferenceable(208) %28) #13
  br label %34

34:                                               ; preds = %30, %13
  br label %35

35:                                               ; preds = %34
  %36 = load i32, ptr %5, align 4
  %37 = add nsw i32 %36, 1
  store i32 %37, ptr %5, align 4
  br label %7, !llvm.loop !15

38:                                               ; preds = %7
  %39 = getelementptr inbounds nuw %"class.ncnn::DeconvolutionDepthWise_x86_fma", ptr %6, i32 0, i32 1
  call void @_ZNSt6vectorIPN4ncnn5LayerESaIS2_EE5clearEv(ptr noundef nonnull align 8 dereferenceable(24) %39) #13
  ret i32 0
}