; Function Attrs: mustprogress uwtable
define hidden noundef i32 @_ZN4ncnn30DeconvolutionDepthWise_x86_fma16destroy_pipelineERKNS_6OptionE(ptr nocapture noundef nonnull align 8 dereferenceable(608) %0, ptr noundef nonnull align 8 dereferenceable(64) %1) unnamed_addr #0 align 2 personality ptr @__gxx_personality_v0 {
  %3 = getelementptr inbounds nuw i8, ptr %0, i64 512
  %4 = getelementptr inbounds i8, ptr %0, i64 520
  %5 = load ptr, ptr %4, align 8
  %6 = load ptr, ptr %3, align 8
  %7 = ptrtoint ptr %5 to i64
  %8 = ptrtoint ptr %6 to i64
  %9 = sub i64 %7, %8
  %10 = lshr exact i64 %9, 3
  %11 = trunc i64 %10 to i32
  %12 = icmp sgt i32 %11, 0
  br i1 %12, label %.lr.ph, label %._crit_edge

.lr.ph:                                           ; preds = %2, %28
  %indvars.iv = phi i64 [ %indvars.iv.next, %28 ], [ 0, %2 ]
  %13 = phi ptr [ %29, %28 ], [ %6, %2 ]
  %14 = getelementptr inbounds ptr, ptr %13, i64 %indvars.iv
  %15 = load ptr, ptr %14, align 8
  %16 = load ptr, ptr %15, align 8
  %17 = getelementptr inbounds i8, ptr %16, i64 40
  %18 = load ptr, ptr %17, align 8
  %19 = tail call noundef i32 %18(ptr noundef nonnull align 8 dereferenceable(208) %15, ptr noundef nonnull align 8 dereferenceable(64) %1)
  %20 = load ptr, ptr %3, align 8
  %21 = getelementptr inbounds ptr, ptr %20, i64 %indvars.iv
  %22 = load ptr, ptr %21, align 8
  %23 = icmp eq ptr %22, null
  br i1 %23, label %28, label %24

24:                                               ; preds = %.lr.ph
  %25 = load ptr, ptr %22, align 8
  %26 = getelementptr inbounds i8, ptr %25, i64 8
  %27 = load ptr, ptr %26, align 8
  tail call void %27(ptr noundef nonnull align 8 dereferenceable(208) %22) #17
  %.pre = load ptr, ptr %3, align 8
  br label %28

28:                                               ; preds = %.lr.ph, %24
  %29 = phi ptr [ %20, %.lr.ph ], [ %.pre, %24 ]
  %indvars.iv.next = add nuw nsw i64 %indvars.iv, 1
  %30 = load ptr, ptr %4, align 8
  %31 = ptrtoint ptr %30 to i64
  %32 = ptrtoint ptr %29 to i64
  %33 = sub i64 %31, %32
  %sext = shl i64 %33, 29
  %34 = ashr i64 %sext, 32
  %35 = icmp slt i64 %indvars.iv.next, %34
  br i1 %35, label %.lr.ph, label %._crit_edge, !llvm.loop !9

._crit_edge:                                      ; preds = %28, %2
  %.lcssa6 = phi ptr [ %5, %2 ], [ %30, %28 ]
  %.lcssa = phi ptr [ %6, %2 ], [ %29, %28 ]
  %.not.i.i = icmp eq ptr %.lcssa6, %.lcssa
  br i1 %.not.i.i, label %_ZNSt6vectorIPN4ncnn5LayerESaIS2_EE5clearEv.exit, label %36

36:                                               ; preds = %._crit_edge
  store ptr %.lcssa, ptr %4, align 8
  br label %_ZNSt6vectorIPN4ncnn5LayerESaIS2_EE5clearEv.exit

_ZNSt6vectorIPN4ncnn5LayerESaIS2_EE5clearEv.exit: ; preds = %._crit_edge, %36
  ret i32 0
}